target datalayout = "e-m:e-p270:32:32-p271:32:32-p272:64:64-i64:64-i128:128-f80:128-n8:16:32:64-S128"
target triple = "x86_64-pc-linux-gnu"

%"class.ODDLParser::IOStreamBase" = type { ptr, ptr, ptr }

@_ZN10ODDLParser19StreamFormatterBaseC1Ev = hidden unnamed_addr alias void (ptr), ptr @_ZN10ODDLParser19StreamFormatterBaseC2Ev

; Function Attrs: mustprogress uwtable
define hidden void @_ZN10ODDLParser12IOStreamBaseC2EPNS_19StreamFormatterBaseE(ptr noundef nonnull align 8 dereferenceable(24) %0, ptr noundef %1) unnamed_addr #2 align 2 personality ptr @__gxx_personality_v0 {
  %3 = alloca ptr, align 8
  %4 = alloca ptr, align 8
  %5 = alloca ptr, align 8
  %6 = alloca i32, align 4
  store ptr %0, ptr %3, align 8
  store ptr %1, ptr %4, align 8
  %7 = load ptr, ptr %3, align 8
  store ptr getelementptr inbounds inrange(-16, 56) ({ [9 x ptr] }, ptr @_ZTVN10ODDLParser12IOStreamBaseE, i32 0, i32 0, i32 2), ptr %7, align 8
  %8 = getelementptr inbounds nuw %"class.ODDLParser::IOStreamBase", ptr %7, i32 0, i32 1
  %9 = load ptr, ptr %4, align 8
  store ptr %9, ptr %8, align 8
  %10 = getelementptr inbounds nuw %"class.ODDLParser::IOStreamBase", ptr %7, i32 0, i32 2
  store ptr null, ptr %10, align 8
  %11 = getelementptr inbounds nuw %"class.ODDLParser::IOStreamBase", ptr %7, i32 0, i32 1
  %12 = load ptr, ptr %11, align 8
  %13 = icmp eq ptr null, %12
  br i1 %13, label %14, label %22

14:                                               ; preds = %2
  %15 = call noalias noundef nonnull ptr @_Znwm(i64 noundef 8) #14
  invoke void @_ZN10ODDLParser19StreamFormatterBaseC1Ev(ptr noundef nonnull align 8 dereferenceable(8) %15)
          to label %16 unwind label %18

16:                                               ; preds = %14
  %17 = getelementptr inbounds nuw %"class.ODDLParser::IOStreamBase", ptr %7, i32 0, i32 1
  store ptr %15, ptr %17, align 8
  br label %22

18:                                               ; preds = %14
  %19 = landingpad { ptr, i32 }
          cleanup
  %20 = extractvalue { ptr, i32 } %19, 0
  store ptr %20, ptr %5, align 8
  %21 = extractvalue { ptr, i32 } %19, 1
  store i32 %21, ptr %6, align 4
  call void @_ZdlPvm(ptr noundef %15, i64 noundef 8) #12
  br label %23

22:                                               ; preds = %16, %2
  ret void

23:                                               ; preds = %18
  %24 = load ptr, ptr %5, align 8
  %25 = load i32, ptr %6, align 4
  %26 = insertvalue { ptr, i32 } poison, ptr %24, 0
  %27 = insertvalue { ptr, i32 } %26, i32 %25, 1
  resume { ptr, i32 } %27
}